; Function Attrs: nounwind uwtable
define internal { i64, i64 } @js_std_fdopen(ptr noundef %0, i64 %1, i64 %2, i32 noundef %3, ptr nocapture noundef readonly %4) #0 {
  %6 = alloca i32, align 4
  %7 = load i64, ptr %4, align 8
  %8 = getelementptr inbounds i8, ptr %4, i64 8
  %9 = load i64, ptr %8, align 8
  %10 = call i32 @JS_ToInt32(ptr noundef %0, ptr noundef nonnull %6, i64 %7, i64 %9) #29
  %.not = icmp eq i32 %10, 0
  br i1 %.not, label %11, label %62

11:                                               ; preds = %5
  %12 = getelementptr i8, ptr %4, i64 16
  %13 = load i64, ptr %12, align 8
  %14 = getelementptr i8, ptr %4, i64 24
  %15 = load i64, ptr %14, align 8
  %16 = call ptr @JS_ToCStringLen2(ptr noundef %0, ptr noundef null, i64 %13, i64 %15, i32 noundef 0) #29
  %.not28 = icmp eq ptr %16, null
  br i1 %.not28, label %61, label %17

17:                                               ; preds = %11
  %18 = call i64 @strspn(ptr noundef nonnull %16, ptr noundef nonnull @.str.88) #31
  %19 = getelementptr i8, ptr %16, i64 %18
  %20 = load i8, ptr %19, align 1
  %.not29 = icmp eq i8 %20, 0
  br i1 %.not29, label %23, label %21

21:                                               ; preds = %17
  %22 = call { i64, i64 } (ptr, ptr, ...) @JS_ThrowTypeError(ptr noundef %0, ptr noundef nonnull @.str.85) #29
  br label %61

23:                                               ; preds = %17
  %24 = load i32, ptr %6, align 4
  %25 = call noalias ptr @fdopen(i32 noundef %24, ptr noundef nonnull %16) #29
  %.not30 = icmp eq ptr %25, null
  br i1 %.not30, label %26, label %30

26:                                               ; preds = %23
  %27 = tail call ptr @__errno_location() #28
  %28 = load i32, ptr %27, align 4
  %29 = zext i32 %28 to i64
  br label %30

30:                                               ; preds = %23, %26
  %.0 = phi i64 [ %29, %26 ], [ 0, %23 ]
  %31 = icmp sgt i32 %3, 2
  br i1 %31, label %32, label %js_set_error_object.exit

32:                                               ; preds = %30
  %33 = getelementptr i8, ptr %4, i64 40
  %34 = load i64, ptr %33, align 8
  %35 = and i64 %34, 4294967295
  %.not.i = icmp eq i64 %35, 3
  br i1 %.not.i, label %js_set_error_object.exit, label %36

36:                                               ; preds = %32
  %37 = getelementptr i8, ptr %4, i64 32
  %38 = load i64, ptr %37, align 8
  %39 = call i32 @JS_SetPropertyStr(ptr noundef %0, i64 %38, i64 %34, ptr noundef nonnull @.str.86, i64 %.0, i64 0) #29
  br label %js_set_error_object.exit

js_set_error_object.exit:                         ; preds = %36, %32, %30
  call void @JS_FreeCString(ptr noundef %0, ptr noundef nonnull %16) #29
  br i1 %.not30, label %62, label %40

40:                                               ; preds = %js_set_error_object.exit
  %41 = load i32, ptr @js_std_file_class_id, align 4
  %42 = call { i64, i64 } @JS_NewObjectClass(ptr noundef %0, i32 noundef %41) #29
  %43 = extractvalue { i64, i64 } %42, 0
  %44 = extractvalue { i64, i64 } %42, 1
  %45 = and i64 %44, 4294967295
  %.not.i31 = icmp eq i64 %45, 6
  br i1 %.not.i31, label %46, label %47

46:                                               ; preds = %40
  %.sroa.4.0.extract.shift.i = and i64 %43, -4294967296
  br label %js_new_std_file.exit

47:                                               ; preds = %40
  %48 = call ptr @js_mallocz(ptr noundef %0, i64 noundef 16) #29
  %.not24.i = icmp eq ptr %48, null
  br i1 %.not24.i, label %49, label %58

49:                                               ; preds = %47
  %50 = trunc i64 %44 to i32
  %51 = icmp ugt i32 %50, -12
  br i1 %51, label %52, label %js_new_std_file.exit

52:                                               ; preds = %49
  %53 = inttoptr i64 %43 to ptr
  %54 = load i32, ptr %53, align 4
  %55 = add i32 %54, -1
  store i32 %55, ptr %53, align 4
  %56 = icmp slt i32 %55, 1
  br i1 %56, label %57, label %js_new_std_file.exit

57:                                               ; preds = %52
  call void @__JS_FreeValue(ptr noundef %0, i64 %43, i64 %44) #29
  br label %js_new_std_file.exit

58:                                               ; preds = %47
  %59 = getelementptr inbounds i8, ptr %48, i64 8
  store i32 1, ptr %59, align 8
  %60 = getelementptr inbounds i8, ptr %48, i64 12
  store i32 0, ptr %60, align 4
  store ptr %25, ptr %48, align 8
  call void @JS_SetOpaque(i64 %43, i64 %44, ptr noundef nonnull %48) #29
  %.sroa.4.0.extract.shift20.i = and i64 %43, -4294967296
  br label %js_new_std_file.exit

js_new_std_file.exit:                             ; preds = %46, %49, %52, %57, %58
  %.sroa.018.0.i = phi i64 [ %43, %46 ], [ %43, %58 ], [ 0, %49 ], [ 0, %52 ], [ 0, %57 ]
  %.sroa.4.sroa.0.0.i = phi i64 [ %.sroa.4.0.extract.shift.i, %46 ], [ %.sroa.4.0.extract.shift20.i, %58 ], [ 0, %49 ], [ 0, %52 ], [ 0, %57 ]
  %.sroa.4.sroa.3.0.i = phi i64 [ %44, %46 ], [ %44, %58 ], [ 6, %49 ], [ 6, %52 ], [ 6, %57 ]
  %.sroa.018.0.insert.ext.i = and i64 %.sroa.018.0.i, 4294967295
  br label %62

61:                                               ; preds = %11, %21
  call void @JS_FreeCString(ptr noundef %0, ptr noundef %16) #29
  br label %62

62:                                               ; preds = %js_set_error_object.exit, %5, %61, %js_new_std_file.exit
  %.sroa.022.0 = phi i64 [ 0, %61 ], [ %.sroa.018.0.insert.ext.i, %js_new_std_file.exit ], [ 0, %5 ], [ 0, %js_set_error_object.exit ]
  %.sroa.5.sroa.0.0 = phi i64 [ 0, %61 ], [ %.sroa.4.sroa.0.0.i, %js_new_std_file.exit ], [ 0, %5 ], [ 0, %js_set_error_object.exit ]
  %.sroa.5.sroa.2.0 = phi i64 [ 6, %61 ], [ %.sroa.4.sroa.3.0.i, %js_new_std_file.exit ], [ 6, %5 ], [ 2, %js_set_error_object.exit ]
  %.sroa.022.0.insert.insert = or disjoint i64 %.sroa.5.sroa.0.0, %.sroa.022.0
  %.fca.0.insert = insertvalue { i64, i64 } poison, i64 %.sroa.022.0.insert.insert, 0
  %.fca.1.insert = insertvalue { i64, i64 } %.fca.0.insert, i64 %.sroa.5.sroa.2.0, 1
  ret { i64, i64 } %.fca.1.insert
}